target datalayout = "e-m:e-p270:32:32-p271:32:32-p272:64:64-i64:64-i128:128-f80:128-n8:16:32:64-S128"
target triple = "x86_64-pc-linux-gnu"

@.str.4 = private unnamed_addr constant [27 x i8] c"../openssl/test/drbgtest.c\00", align 1
@.str.95 = private unnamed_addr constant [34 x i8] c"multi_thread_rand_bytes_succeeded\00", align 1
@multi_thread_rand_bytes_succeeded = internal global i32 1, align 4
@.str.96 = private unnamed_addr constant [39 x i8] c"multi_thread_rand_priv_bytes_succeeded\00", align 1
@multi_thread_rand_priv_bytes_succeeded = internal global i32 1, align 4

; Function Attrs: nounwind uwtable
define internal i32 @wait_for_thread(i64 noundef %0) #0 {
  %2 = alloca i64, align 8
  store i64 %0, ptr %2, align 8, !tbaa !16
  %3 = load i64, ptr %2, align 8, !tbaa !16
  %4 = call i32 @pthread_join(i64 noundef %3, ptr noundef null)
  %5 = icmp eq i32 %4, 0
  %6 = zext i1 %5 to i32
  ret i32 %6
}

; Function Attrs: nounwind uwtable
define internal i32 @run_thread(ptr noundef %0) #0 {
  %2 = alloca ptr, align 8
  store ptr %0, ptr %2, align 8, !tbaa !50
  %3 = load ptr, ptr %2, align 8, !tbaa !50
  %4 = call i32 @pthread_create(ptr noundef %3, ptr noundef null, ptr noundef @thread_run, ptr noundef null) #8
  %5 = icmp eq i32 %4, 0
  %6 = zext i1 %5 to i32
  ret i32 %6
}

; Function Attrs: nounwind uwtable
define internal i32 @test_multi_thread() #0 {
  %1 = alloca i32, align 4
  %2 = alloca [3 x i64], align 16
  %3 = alloca i32, align 4
  %4 = alloca i32, align 4
  call void @llvm.lifetime.start.p0(i64 24, ptr %2) #8
  call void @llvm.lifetime.start.p0(i64 4, ptr %3) #8
  store i32 0, ptr %3, align 4, !tbaa !4
  br label %5

5:                                                ; preds = %13, %0
  %6 = load i32, ptr %3, align 4, !tbaa !4
  %7 = icmp slt i32 %6, 3
  br i1 %7, label %8, label %16

8:                                                ; preds = %5
  %9 = load i32, ptr %3, align 4, !tbaa !4
  %10 = sext i32 %9 to i64
  %11 = getelementptr inbounds [3 x i64], ptr %2, i64 0, i64 %10
  %12 = call i32 @run_thread(ptr noundef %11)
  br label %13

13:                                               ; preds = %8
  %14 = load i32, ptr %3, align 4, !tbaa !4
  %15 = add nsw i32 %14, 1
  store i32 %15, ptr %3, align 4, !tbaa !4
  br label %5, !llvm.loop !17

16:                                               ; preds = %5
  call void @run_multi_thread_test()
  store i32 0, ptr %3, align 4, !tbaa !4
  br label %17

17:                                               ; preds = %26, %16
  %18 = load i32, ptr %3, align 4, !tbaa !4
  %19 = icmp slt i32 %18, 3
  br i1 %19, label %20, label %29

20:                                               ; preds = %17
  %21 = load i32, ptr %3, align 4, !tbaa !4
  %22 = sext i32 %21 to i64
  %23 = getelementptr inbounds [3 x i64], ptr %2, i64 0, i64 %22
  %24 = load i64, ptr %23, align 8, !tbaa !16
  %25 = call i32 @wait_for_thread(i64 noundef %24)
  br label %26

26:                                               ; preds = %20
  %27 = load i32, ptr %3, align 4, !tbaa !4
  %28 = add nsw i32 %27, 1
  store i32 %28, ptr %3, align 4, !tbaa !4
  br label %17, !llvm.loop !19

29:                                               ; preds = %17
  %30 = load i32, ptr @multi_thread_rand_bytes_succeeded, align 4, !tbaa !4
  %31 = icmp ne i32 %30, 0
  %32 = zext i1 %31 to i32
  %33 = call i32 @test_true(ptr noundef @.str.4, i32 noundef 773, ptr noundef @.str.95, i32 noundef %32)
  %34 = icmp ne i32 %33, 0
  br i1 %34, label %36, label %35

35:                                               ; preds = %29
  store i32 0, ptr %1, align 4
  store i32 1, ptr %4, align 4
  br label %44

36:                                               ; preds = %29
  %37 = load i32, ptr @multi_thread_rand_priv_bytes_succeeded, align 4, !tbaa !4
  %38 = icmp ne i32 %37, 0
  %39 = zext i1 %38 to i32
  %40 = call i32 @test_true(ptr noundef @.str.4, i32 noundef 775, ptr noundef @.str.96, i32 noundef %39)
  %41 = icmp ne i32 %40, 0
  br i1 %41, label %43, label %42

42:                                               ; preds = %36
  store i32 0, ptr %1, align 4
  store i32 1, ptr %4, align 4
  br label %44

43:                                               ; preds = %36
  store i32 1, ptr %1, align 4
  store i32 1, ptr %4, align 4
  br label %44

44:                                               ; preds = %43, %42, %35
  call void @llvm.lifetime.end.p0(i64 4, ptr %3) #8
  call void @llvm.lifetime.end.p0(i64 24, ptr %2) #8
  %45 = load i32, ptr %1, align 4
  ret i32 %45
}