; Function Attrs: nounwind uwtable
define internal range(i32 0, 2) i32 @test_multi_thread() #0 {
  %1 = alloca [3 x i64], align 16
  call void @llvm.lifetime.start.p0(i64 24, ptr nonnull %1) #14
  br label %2

2:                                                ; preds = %0, %2
  %indvars.iv = phi i64 [ 0, %0 ], [ %indvars.iv.next, %2 ]
  %3 = getelementptr inbounds nuw [3 x i64], ptr %1, i64 0, i64 %indvars.iv
  %4 = call i32 @pthread_create(ptr noundef nonnull %3, ptr noundef null, ptr noundef nonnull @thread_run, ptr noundef null) #14
  %indvars.iv.next = add nuw nsw i64 %indvars.iv, 1
  %exitcond.not = icmp eq i64 %indvars.iv.next, 3
  br i1 %exitcond.not, label %5, label %2, !llvm.loop !30

5:                                                ; preds = %2
  call fastcc void @run_multi_thread_test()
  br label %6

6:                                                ; preds = %5, %6
  %indvars.iv13 = phi i64 [ 0, %5 ], [ %indvars.iv.next14, %6 ]
  %7 = getelementptr inbounds nuw [3 x i64], ptr %1, i64 0, i64 %indvars.iv13
  %8 = load i64, ptr %7, align 8, !tbaa !31
  %9 = call i32 @pthread_join(i64 noundef %8, ptr noundef null) #14
  %indvars.iv.next14 = add nuw nsw i64 %indvars.iv13, 1
  %exitcond16.not = icmp eq i64 %indvars.iv.next14, 3
  br i1 %exitcond16.not, label %10, label %6, !llvm.loop !32

10:                                               ; preds = %6
  %.b = load i1, ptr @multi_thread_rand_bytes_succeeded, align 4
  %not..b = xor i1 %.b, true
  %11 = zext i1 %not..b to i32
  %12 = call i32 @test_true(ptr noundef nonnull @.str.4, i32 noundef 773, ptr noundef nonnull @.str.95, i32 noundef %11) #14
  %.not = icmp eq i32 %12, 0
  br i1 %.not, label %16, label %13

13:                                               ; preds = %10
  %.b8 = load i1, ptr @multi_thread_rand_priv_bytes_succeeded, align 4
  %not..b8 = xor i1 %.b8, true
  %14 = zext i1 %not..b8 to i32
  %15 = call i32 @test_true(ptr noundef nonnull @.str.4, i32 noundef 775, ptr noundef nonnull @.str.96, i32 noundef %14) #14
  %.not9 = icmp ne i32 %15, 0
  %. = zext i1 %.not9 to i32
  br label %16

16:                                               ; preds = %13, %10
  %.07 = phi i32 [ 0, %10 ], [ %., %13 ]
  call void @llvm.lifetime.end.p0(i64 24, ptr nonnull %1) #14
  ret i32 %.07
}